target datalayout = "e-m:e-p270:32:32-p271:32:32-p272:64:64-i64:64-i128:128-f80:128-n8:16:32:64-S128"
target triple = "x86_64-pc-linux-gnu"

@__const.SDL_Zenity_detect.args = private unnamed_addr constant [3 x ptr] [ptr @.str.1, ptr @.str.2, ptr null], align 16
@.str.3 = private unnamed_addr constant [24 x i8] c"SDL.process.create.args\00", align 1
@.str.4 = private unnamed_addr constant [32 x i8] c"SDL.process.create.stdin_option\00", align 1
@.str.5 = private unnamed_addr constant [33 x i8] c"SDL.process.create.stdout_option\00", align 1
@.str.6 = private unnamed_addr constant [33 x i8] c"SDL.process.create.stderr_option\00", align 1

; Function Attrs: nounwind uwtable
define hidden zeroext i1 @SDL_Zenity_detect() #0 {
  %1 = alloca [3 x ptr], align 16
  %2 = alloca i32, align 4
  %3 = alloca i32, align 4
  %4 = alloca ptr, align 8
  call void @llvm.lifetime.start.p0(i64 24, ptr %1) #6
  call void @llvm.memcpy.p0.p0.i64(ptr align 16 %1, ptr align 16 @__const.SDL_Zenity_detect.args, i64 24, i1 false)
  call void @llvm.lifetime.start.p0(i64 4, ptr %2) #6
  store i32 -1, ptr %2, align 4
  call void @llvm.lifetime.start.p0(i64 4, ptr %3) #6
  %5 = call i32 @SDL_CreateProperties_REAL()
  store i32 %5, ptr %3, align 4
  %6 = load i32, ptr %3, align 4
  %7 = getelementptr inbounds [3 x ptr], ptr %1, i64 0, i64 0
  %8 = call zeroext i1 @SDL_SetPointerProperty_REAL(i32 noundef %6, ptr noundef @.str.3, ptr noundef %7)
  %9 = load i32, ptr %3, align 4
  %10 = call zeroext i1 @SDL_SetNumberProperty_REAL(i32 noundef %9, ptr noundef @.str.4, i64 noundef 1)
  %11 = load i32, ptr %3, align 4
  %12 = call zeroext i1 @SDL_SetNumberProperty_REAL(i32 noundef %11, ptr noundef @.str.5, i64 noundef 1)
  %13 = load i32, ptr %3, align 4
  %14 = call zeroext i1 @SDL_SetNumberProperty_REAL(i32 noundef %13, ptr noundef @.str.6, i64 noundef 1)
  call void @llvm.lifetime.start.p0(i64 8, ptr %4) #6
  %15 = load i32, ptr %3, align 4
  %16 = call ptr @SDL_CreateProcessWithProperties_REAL(i32 noundef %15)
  store ptr %16, ptr %4, align 8
  %17 = load i32, ptr %3, align 4
  call void @SDL_DestroyProperties_REAL(i32 noundef %17)
  %18 = load ptr, ptr %4, align 8
  %19 = icmp ne ptr %18, null
  br i1 %19, label %20, label %24

20:                                               ; preds = %0
  %21 = load ptr, ptr %4, align 8
  %22 = call zeroext i1 @SDL_WaitProcess_REAL(ptr noundef %21, i1 noundef zeroext true, ptr noundef %2)
  %23 = load ptr, ptr %4, align 8
  call void @SDL_DestroyProcess_REAL(ptr noundef %23)
  br label %24

24:                                               ; preds = %20, %0
  %25 = load i32, ptr %2, align 4
  %26 = icmp eq i32 %25, 0
  call void @llvm.lifetime.end.p0(i64 8, ptr %4) #6
  call void @llvm.lifetime.end.p0(i64 4, ptr %3) #6
  call void @llvm.lifetime.end.p0(i64 4, ptr %2) #6
  call void @llvm.lifetime.end.p0(i64 24, ptr %1) #6
  ret i1 %26
}