; Function Attrs: nounwind uwtable
define hidden zeroext i1 @SDL_Zenity_detect() local_unnamed_addr #0 {
  %1 = alloca [3 x ptr], align 16
  %2 = alloca i32, align 4
  call void @llvm.lifetime.start.p0(i64 24, ptr nonnull %1) #7
  call void @llvm.memcpy.p0.p0.i64(ptr noundef nonnull align 16 dereferenceable(24) %1, ptr noundef nonnull align 16 dereferenceable(24) @__const.SDL_Zenity_detect.args, i64 24, i1 false)
  call void @llvm.lifetime.start.p0(i64 4, ptr nonnull %2) #7
  store i32 -1, ptr %2, align 4
  %3 = tail call i32 @SDL_CreateProperties_REAL() #7
  %4 = call zeroext i1 @SDL_SetPointerProperty_REAL(i32 noundef %3, ptr noundef nonnull @.str.3, ptr noundef nonnull %1) #7
  %5 = call zeroext i1 @SDL_SetNumberProperty_REAL(i32 noundef %3, ptr noundef nonnull @.str.4, i64 noundef 1) #7
  %6 = call zeroext i1 @SDL_SetNumberProperty_REAL(i32 noundef %3, ptr noundef nonnull @.str.5, i64 noundef 1) #7
  %7 = call zeroext i1 @SDL_SetNumberProperty_REAL(i32 noundef %3, ptr noundef nonnull @.str.6, i64 noundef 1) #7
  %8 = call ptr @SDL_CreateProcessWithProperties_REAL(i32 noundef %3) #7
  call void @SDL_DestroyProperties_REAL(i32 noundef %3) #7
  %.not = icmp eq ptr %8, null
  br i1 %.not, label %12, label %9

9:                                                ; preds = %0
  %10 = call zeroext i1 @SDL_WaitProcess_REAL(ptr noundef nonnull %8, i1 noundef zeroext true, ptr noundef nonnull %2) #7
  call void @SDL_DestroyProcess_REAL(ptr noundef nonnull %8) #7
  %.pre = load i32, ptr %2, align 4
  %11 = icmp eq i32 %.pre, 0
  br label %12

12:                                               ; preds = %9, %0
  %13 = phi i1 [ %11, %9 ], [ false, %0 ]
  call void @llvm.lifetime.end.p0(i64 4, ptr nonnull %2) #7
  call void @llvm.lifetime.end.p0(i64 24, ptr nonnull %1) #7
  ret i1 %13
}